; Function Attrs: mustprogress uwtable
define void @_ZNK18OpenImageIO_v2_6_014ParamValueList11get_ustringENS_17basic_string_viewIcSt11char_traitsIcEEES4_bb(ptr noalias nocapture writeonly sret(%"class.OpenImageIO_v2_6_0::ustring") align 8 %agg.result, ptr nocapture noundef nonnull readonly align 8 dereferenceable(24) %this, ptr nocapture noundef readonly %name, ptr nocapture noundef readonly %defaultval, i1 noundef zeroext %casesensitive, i1 noundef zeroext %convert) local_unnamed_addr #10 align 2 {
entry:
  %agg.tmp.i = alloca %"class.OpenImageIO_v2_6_0::basic_string_view", align 8
  %agg.tmp = alloca %"class.OpenImageIO_v2_6_0::basic_string_view", align 8
  %agg.tmp3 = alloca %"struct.OpenImageIO_v2_6_0::TypeDesc", align 4
  %0 = load ptr, ptr %name, align 8
  store ptr %0, ptr %agg.tmp, align 8
  %m_len.i = getelementptr inbounds i8, ptr %agg.tmp, i64 8
  %m_len.i.i = getelementptr inbounds i8, ptr %name, i64 8
  %1 = load i64, ptr %m_len.i.i, align 8
  store i64 %1, ptr %m_len.i, align 8
  %conv.i = select i1 %convert, i8 0, i8 13
  store i8 %conv.i, ptr %agg.tmp3, align 4
  %aggregate.i = getelementptr inbounds i8, ptr %agg.tmp3, i64 1
  store i8 1, ptr %aggregate.i, align 1
  %vecsemantics.i = getelementptr inbounds i8, ptr %agg.tmp3, i64 2
  store i8 0, ptr %vecsemantics.i, align 2
  %reserved.i = getelementptr inbounds i8, ptr %agg.tmp3, i64 3
  store i8 0, ptr %reserved.i, align 1
  %arraylen4.i = getelementptr inbounds i8, ptr %agg.tmp3, i64 4
  store i32 0, ptr %arraylen4.i, align 4
  %call = call ptr @_ZNK18OpenImageIO_v2_6_014ParamValueList4findENS_17basic_string_viewIcSt11char_traitsIcEEENS_8TypeDescEb(ptr noundef nonnull align 8 dereferenceable(24) %this, ptr noundef nonnull %agg.tmp, ptr noundef nonnull %agg.tmp3, i1 noundef zeroext %casesensitive)
  %_M_finish.i = getelementptr inbounds i8, ptr %this, i64 8
  %2 = load ptr, ptr %_M_finish.i, align 8
  %cmp.i = icmp eq ptr %call, %2
  br i1 %cmp.i, label %cond.true, label %cond.false

cond.true:                                        ; preds = %entry
  %3 = load ptr, ptr %defaultval, align 8
  %m_len.i.i2 = getelementptr inbounds i8, ptr %defaultval, i64 8
  %4 = load i64, ptr %m_len.i.i2, align 8
  call void @llvm.lifetime.start.p0(i64 16, ptr nonnull %agg.tmp.i)
  %tobool.not.i = icmp eq ptr %3, null
  br i1 %tobool.not.i, label %_ZN18OpenImageIO_v2_6_07ustringC2ENS_17basic_string_viewIcSt11char_traitsIcEEE.exit, label %cond.true.i

cond.true.i:                                      ; preds = %cond.true
  store ptr %3, ptr %agg.tmp.i, align 8
  %m_len.i.i3 = getelementptr inbounds i8, ptr %agg.tmp.i, i64 8
  store i64 %4, ptr %m_len.i.i3, align 8
  %call2.i = call noundef ptr @_ZN18OpenImageIO_v2_6_07ustring11make_uniqueENS_17basic_string_viewIcSt11char_traitsIcEEE(ptr noundef nonnull %agg.tmp.i)
  br label %_ZN18OpenImageIO_v2_6_07ustringC2ENS_17basic_string_viewIcSt11char_traitsIcEEE.exit

_ZN18OpenImageIO_v2_6_07ustringC2ENS_17basic_string_viewIcSt11char_traitsIcEEE.exit: ; preds = %cond.true, %cond.true.i
  %cond.i = phi ptr [ %call2.i, %cond.true.i ], [ null, %cond.true ]
  store ptr %cond.i, ptr %agg.result, align 8
  call void @llvm.lifetime.end.p0(i64 16, ptr nonnull %agg.tmp.i)
  br label %cond.end

cond.false:                                       ; preds = %entry
  tail call void @_ZNK18OpenImageIO_v2_6_010ParamValue11get_ustringEi(ptr sret(%"class.OpenImageIO_v2_6_0::ustring") align 8 %agg.result, ptr noundef nonnull align 8 dereferenceable(39) %call, i32 noundef 64)
  br label %cond.end

cond.end:                                         ; preds = %cond.false, %_ZN18OpenImageIO_v2_6_07ustringC2ENS_17basic_string_viewIcSt11char_traitsIcEEE.exit
  ret void
}